
stm32.elf:     file format elf32-littlearm

Sections:
Idx Name          Size      VMA       LMA       File off  Algn
  0 .isr_vector   00000130  08000000  08000000  00010000  2**0
                  CONTENTS, ALLOC, LOAD, READONLY, DATA
  1 .text         00000650  08000130  08000130  00010130  2**2
                  CONTENTS, ALLOC, LOAD, READONLY, CODE
  2 .rodata       00000020  08000780  08000780  00010780  2**2
                  CONTENTS, ALLOC, LOAD, READONLY, DATA
  3 .ARM.extab    00000000  080007a0  080007a0  000107a8  2**0
                  CONTENTS
  4 .ARM          00000000  080007a0  080007a0  000107a8  2**0
                  CONTENTS
  5 .preinit_array 00000000  080007a0  080007a8  000107a8  2**0
                  CONTENTS, ALLOC, LOAD, DATA
  6 .init_array   00000004  080007a0  080007a0  000107a0  2**2
                  CONTENTS, ALLOC, LOAD, DATA
  7 .fini_array   00000004  080007a4  080007a4  000107a4  2**2
                  CONTENTS, ALLOC, LOAD, DATA
  8 .data         00000000  20000000  20000000  000107a8  2**0
                  CONTENTS, ALLOC, LOAD, DATA
  9 .bss          00000060  20000000  080007a8  00020000  2**2
                  ALLOC
 10 ._user_heap_stack 00000600  20000060  080007a8  00020060  2**0
                  ALLOC
 11 .ARM.attributes 00000029  00000000  00000000  000107a8  2**0
                  CONTENTS, READONLY
 12 .comment      0000007b  00000000  00000000  000107d1  2**0
                  CONTENTS, READONLY
 13 .debug_frame  0000002c  00000000  00000000  0001084c  2**2
                  CONTENTS, READONLY, DEBUGGING

Disassembly of section .text:

08000130 <__do_global_dtors_aux>:
 8000130:	b510      	push	{r4, lr}
 8000132:	4c05      	ldr	r4, [pc, #20]	; (8000148 <__do_global_dtors_aux+0x18>)
 8000134:	7823      	ldrb	r3, [r4, #0]
 8000136:	b933      	cbnz	r3, 8000146 <__do_global_dtors_aux+0x16>
 8000138:	4b04      	ldr	r3, [pc, #16]	; (800014c <__do_global_dtors_aux+0x1c>)
 800013a:	b113      	cbz	r3, 8000142 <__do_global_dtors_aux+0x12>
 800013c:	4804      	ldr	r0, [pc, #16]	; (8000150 <__do_global_dtors_aux+0x20>)
 800013e:	f3af 8000 	nop.w
 8000142:	2301      	movs	r3, #1
 8000144:	7023      	strb	r3, [r4, #0]
 8000146:	bd10      	pop	{r4, pc}
 8000148:	20000000 	.word	0x20000000
 800014c:	00000000 	.word	0x00000000
 8000150:	08000768 	.word	0x08000768

08000154 <frame_dummy>:
 8000154:	b508      	push	{r3, lr}
 8000156:	4b03      	ldr	r3, [pc, #12]	; (8000164 <frame_dummy+0x10>)
 8000158:	b11b      	cbz	r3, 8000162 <frame_dummy+0xe>
 800015a:	4903      	ldr	r1, [pc, #12]	; (8000168 <frame_dummy+0x14>)
 800015c:	4803      	ldr	r0, [pc, #12]	; (800016c <frame_dummy+0x18>)
 800015e:	f3af 8000 	nop.w
 8000162:	bd08      	pop	{r3, pc}
 8000164:	00000000 	.word	0x00000000
 8000168:	20000004 	.word	0x20000004
 800016c:	08000768 	.word	0x08000768

08000170 <LCD_GPIO_Init>:
 8000170:	b570      	push	{r4, r5, r6, lr}
 8000172:	f44f 7380 	mov.w	r3, #256	; 0x100
 8000176:	f44f 7682 	mov.w	r6, #260	; 0x104
 800017a:	4c29      	ldr	r4, [pc, #164]	; (8000220 <LCD_GPIO_Init+0xb0>)
 800017c:	4d29      	ldr	r5, [pc, #164]	; (8000224 <LCD_GPIO_Init+0xb4>)
 800017e:	4621      	mov	r1, r4
 8000180:	4628      	mov	r0, r5
 8000182:	8023      	strh	r3, [r4, #0]
 8000184:	8066      	strh	r6, [r4, #2]
 8000186:	f000 fa13 	bl	80005b0 <MCAL_GPIO_Init>
 800018a:	f44f 7300 	mov.w	r3, #512	; 0x200
 800018e:	4621      	mov	r1, r4
 8000190:	4628      	mov	r0, r5
 8000192:	8023      	strh	r3, [r4, #0]
 8000194:	8066      	strh	r6, [r4, #2]
 8000196:	f000 fa0b 	bl	80005b0 <MCAL_GPIO_Init>
 800019a:	f44f 6380 	mov.w	r3, #1024	; 0x400
 800019e:	4621      	mov	r1, r4
 80001a0:	4628      	mov	r0, r5
 80001a2:	8023      	strh	r3, [r4, #0]
 80001a4:	8066      	strh	r6, [r4, #2]
 80001a6:	f000 fa03 	bl	80005b0 <MCAL_GPIO_Init>
 80001aa:	2301      	movs	r3, #1
 80001ac:	4621      	mov	r1, r4
 80001ae:	4628      	mov	r0, r5
 80001b0:	8023      	strh	r3, [r4, #0]
 80001b2:	8066      	strh	r6, [r4, #2]
 80001b4:	f000 f9fc 	bl	80005b0 <MCAL_GPIO_Init>
 80001b8:	2302      	movs	r3, #2
 80001ba:	4621      	mov	r1, r4
 80001bc:	4628      	mov	r0, r5
 80001be:	8023      	strh	r3, [r4, #0]
 80001c0:	8066      	strh	r6, [r4, #2]
 80001c2:	f000 f9f5 	bl	80005b0 <MCAL_GPIO_Init>
 80001c6:	2304      	movs	r3, #4
 80001c8:	4621      	mov	r1, r4
 80001ca:	4628      	mov	r0, r5
 80001cc:	8023      	strh	r3, [r4, #0]
 80001ce:	8066      	strh	r6, [r4, #2]
 80001d0:	f000 f9ee 	bl	80005b0 <MCAL_GPIO_Init>
 80001d4:	2308      	movs	r3, #8
 80001d6:	4621      	mov	r1, r4
 80001d8:	4628      	mov	r0, r5
 80001da:	8023      	strh	r3, [r4, #0]
 80001dc:	8066      	strh	r6, [r4, #2]
 80001de:	f000 f9e7 	bl	80005b0 <MCAL_GPIO_Init>
 80001e2:	2310      	movs	r3, #16
 80001e4:	4621      	mov	r1, r4
 80001e6:	4628      	mov	r0, r5
 80001e8:	8023      	strh	r3, [r4, #0]
 80001ea:	8066      	strh	r6, [r4, #2]
 80001ec:	f000 f9e0 	bl	80005b0 <MCAL_GPIO_Init>
 80001f0:	2320      	movs	r3, #32
 80001f2:	4621      	mov	r1, r4
 80001f4:	4628      	mov	r0, r5
 80001f6:	8023      	strh	r3, [r4, #0]
 80001f8:	8066      	strh	r6, [r4, #2]
 80001fa:	f000 f9d9 	bl	80005b0 <MCAL_GPIO_Init>
 80001fe:	2340      	movs	r3, #64	; 0x40
 8000200:	4621      	mov	r1, r4
 8000202:	4628      	mov	r0, r5
 8000204:	8023      	strh	r3, [r4, #0]
 8000206:	8066      	strh	r6, [r4, #2]
 8000208:	f000 f9d2 	bl	80005b0 <MCAL_GPIO_Init>
 800020c:	2380      	movs	r3, #128	; 0x80
 800020e:	8066      	strh	r6, [r4, #2]
 8000210:	8023      	strh	r3, [r4, #0]
 8000212:	4621      	mov	r1, r4
 8000214:	4628      	mov	r0, r5
 8000216:	e8bd 4070 	ldmia.w	sp!, {r4, r5, r6, lr}
 800021a:	f000 b9c9 	b.w	80005b0 <MCAL_GPIO_Init>
 800021e:	bf00      	nop
 8000220:	2000001e 	.word	0x2000001e
 8000224:	40010800 	.word	0x40010800

08000228 <LCD_kick>:
 8000228:	b510      	push	{r4, lr}
 800022a:	4c07      	ldr	r4, [pc, #28]	; (8000248 <LCD_kick+0x20>)
 800022c:	2201      	movs	r2, #1
 800022e:	4620      	mov	r0, r4
 8000230:	f44f 6180 	mov.w	r1, #1024	; 0x400
 8000234:	f000 f9f0 	bl	8000618 <MCAL_GPIO_WRITE_PIN>
 8000238:	4620      	mov	r0, r4
 800023a:	e8bd 4010 	ldmia.w	sp!, {r4, lr}
 800023e:	2200      	movs	r2, #0
 8000240:	f44f 6180 	mov.w	r1, #1024	; 0x400
 8000244:	f000 b9e8 	b.w	8000618 <MCAL_GPIO_WRITE_PIN>
 8000248:	40010800 	.word	0x40010800

0800024c <LCD_WRITE_COMMAND>:
 800024c:	b510      	push	{r4, lr}
 800024e:	4c0a      	ldr	r4, [pc, #40]	; (8000278 <LCD_WRITE_COMMAND+0x2c>)
 8000250:	4601      	mov	r1, r0
 8000252:	4620      	mov	r0, r4
 8000254:	f000 f9de 	bl	8000614 <MCAL_GPIO_WRITE_PORT>
 8000258:	4620      	mov	r0, r4
 800025a:	2200      	movs	r2, #0
 800025c:	f44f 7100 	mov.w	r1, #512	; 0x200
 8000260:	f000 f9da 	bl	8000618 <MCAL_GPIO_WRITE_PIN>
 8000264:	4620      	mov	r0, r4
 8000266:	2200      	movs	r2, #0
 8000268:	f44f 7180 	mov.w	r1, #256	; 0x100
 800026c:	f000 f9d4 	bl	8000618 <MCAL_GPIO_WRITE_PIN>
 8000270:	e8bd 4010 	ldmia.w	sp!, {r4, lr}
 8000274:	f7ff bfd8 	b.w	8000228 <LCD_kick>
 8000278:	40010800 	.word	0x40010800

0800027c <LCD_INIT>:
 800027c:	b508      	push	{r3, lr}
 800027e:	f7ff ff77 	bl	8000170 <LCD_GPIO_Init>
 8000282:	2038      	movs	r0, #56	; 0x38
 8000284:	f7ff ffe2 	bl	800024c <LCD_WRITE_COMMAND>
 8000288:	2006      	movs	r0, #6
 800028a:	f7ff ffdf 	bl	800024c <LCD_WRITE_COMMAND>
 800028e:	2080      	movs	r0, #128	; 0x80
 8000290:	f7ff ffdc 	bl	800024c <LCD_WRITE_COMMAND>
 8000294:	e8bd 4008 	ldmia.w	sp!, {r3, lr}
 8000298:	200f      	movs	r0, #15
 800029a:	f7ff bfd7 	b.w	800024c <LCD_WRITE_COMMAND>
	...

080002a0 <LCD_WRITE_CHAR>:
 80002a0:	b510      	push	{r4, lr}
 80002a2:	4c0a      	ldr	r4, [pc, #40]	; (80002cc <LCD_WRITE_CHAR+0x2c>)
 80002a4:	4601      	mov	r1, r0
 80002a6:	4620      	mov	r0, r4
 80002a8:	f000 f9b4 	bl	8000614 <MCAL_GPIO_WRITE_PORT>
 80002ac:	4620      	mov	r0, r4
 80002ae:	2200      	movs	r2, #0
 80002b0:	f44f 7100 	mov.w	r1, #512	; 0x200
 80002b4:	f000 f9b0 	bl	8000618 <MCAL_GPIO_WRITE_PIN>
 80002b8:	4620      	mov	r0, r4
 80002ba:	2201      	movs	r2, #1
 80002bc:	f44f 7180 	mov.w	r1, #256	; 0x100
 80002c0:	f000 f9aa 	bl	8000618 <MCAL_GPIO_WRITE_PIN>
 80002c4:	e8bd 4010 	ldmia.w	sp!, {r4, lr}
 80002c8:	f7ff bfae 	b.w	8000228 <LCD_kick>
 80002cc:	40010800 	.word	0x40010800

080002d0 <LCD_clear_screen>:
 80002d0:	2001      	movs	r0, #1
 80002d2:	f7ff bfbb 	b.w	800024c <LCD_WRITE_COMMAND>

080002d6 <LCD_WRITE_STRING_POS>:
 80002d6:	b570      	push	{r4, r5, r6, lr}
 80002d8:	4605      	mov	r5, r0
 80002da:	4616      	mov	r6, r2
 80002dc:	2400      	movs	r4, #0
 80002de:	e006      	b.n	80002ee <LCD_WRITE_STRING_POS+0x18>
 80002e0:	2c10      	cmp	r4, #16
 80002e2:	d001      	beq.n	80002e8 <LCD_WRITE_STRING_POS+0x12>
 80002e4:	2e10      	cmp	r6, #16
 80002e6:	d106      	bne.n	80002f6 <LCD_WRITE_STRING_POS+0x20>
 80002e8:	20c0      	movs	r0, #192	; 0xc0
 80002ea:	f7ff ffaf 	bl	800024c <LCD_WRITE_COMMAND>
 80002ee:	7828      	ldrb	r0, [r5, #0]
 80002f0:	2800      	cmp	r0, #0
 80002f2:	d1f5      	bne.n	80002e0 <LCD_WRITE_STRING_POS+0xa>
 80002f4:	bd70      	pop	{r4, r5, r6, pc}
 80002f6:	2c20      	cmp	r4, #32
 80002f8:	d105      	bne.n	8000306 <LCD_WRITE_STRING_POS+0x30>
 80002fa:	f7ff ffe9 	bl	80002d0 <LCD_clear_screen>
 80002fe:	2080      	movs	r0, #128	; 0x80
 8000300:	f7ff ffa4 	bl	800024c <LCD_WRITE_COMMAND>
 8000304:	e7ea      	b.n	80002dc <LCD_WRITE_STRING_POS+0x6>
 8000306:	3401      	adds	r4, #1
 8000308:	3501      	adds	r5, #1
 800030a:	f7ff ffc9 	bl	80002a0 <LCD_WRITE_CHAR>
 800030e:	e7ee      	b.n	80002ee <LCD_WRITE_STRING_POS+0x18>

08000310 <Enable_NVIC>:
 8000310:	280f      	cmp	r0, #15
 8000312:	d80e      	bhi.n	8000332 <Enable_NVIC+0x22>
 8000314:	e8df f000 	tbb	[pc, r0]
 8000318:	18130e08 	.word	0x18130e08
 800031c:	2222221d 	.word	0x2222221d
 8000320:	27272222 	.word	0x27272222
 8000324:	27272727 	.word	0x27272727
 8000328:	4a10      	ldr	r2, [pc, #64]	; (800036c <Enable_NVIC+0x5c>)
 800032a:	6813      	ldr	r3, [r2, #0]
 800032c:	f043 0340 	orr.w	r3, r3, #64	; 0x40
 8000330:	6013      	str	r3, [r2, #0]
 8000332:	4770      	bx	lr
 8000334:	4a0d      	ldr	r2, [pc, #52]	; (800036c <Enable_NVIC+0x5c>)
 8000336:	6813      	ldr	r3, [r2, #0]
 8000338:	f043 0380 	orr.w	r3, r3, #128	; 0x80
 800033c:	e7f8      	b.n	8000330 <Enable_NVIC+0x20>
 800033e:	4a0b      	ldr	r2, [pc, #44]	; (800036c <Enable_NVIC+0x5c>)
 8000340:	6813      	ldr	r3, [r2, #0]
 8000342:	f443 7380 	orr.w	r3, r3, #256	; 0x100
 8000346:	e7f3      	b.n	8000330 <Enable_NVIC+0x20>
 8000348:	4a08      	ldr	r2, [pc, #32]	; (800036c <Enable_NVIC+0x5c>)
 800034a:	6813      	ldr	r3, [r2, #0]
 800034c:	f443 7300 	orr.w	r3, r3, #512	; 0x200
 8000350:	e7ee      	b.n	8000330 <Enable_NVIC+0x20>
 8000352:	4a06      	ldr	r2, [pc, #24]	; (800036c <Enable_NVIC+0x5c>)
 8000354:	6813      	ldr	r3, [r2, #0]
 8000356:	f443 6380 	orr.w	r3, r3, #1024	; 0x400
 800035a:	e7e9      	b.n	8000330 <Enable_NVIC+0x20>
 800035c:	4a03      	ldr	r2, [pc, #12]	; (800036c <Enable_NVIC+0x5c>)
 800035e:	6813      	ldr	r3, [r2, #0]
 8000360:	f443 0300 	orr.w	r3, r3, #8388608	; 0x800000
 8000364:	e7e4      	b.n	8000330 <Enable_NVIC+0x20>
 8000366:	4a02      	ldr	r2, [pc, #8]	; (8000370 <Enable_NVIC+0x60>)
 8000368:	e7ea      	b.n	8000340 <Enable_NVIC+0x30>
 800036a:	bf00      	nop
 800036c:	e000e100 	.word	0xe000e100
 8000370:	e000e104 	.word	0xe000e104

08000374 <Disable_NVIC>:
 8000374:	280f      	cmp	r0, #15
 8000376:	d80e      	bhi.n	8000396 <Disable_NVIC+0x22>
 8000378:	e8df f000 	tbb	[pc, r0]
 800037c:	18130e08 	.word	0x18130e08
 8000380:	2222221d 	.word	0x2222221d
 8000384:	22222222 	.word	0x22222222
 8000388:	22222222 	.word	0x22222222
 800038c:	4a0f      	ldr	r2, [pc, #60]	; (80003cc <Disable_NVIC+0x58>)
 800038e:	6813      	ldr	r3, [r2, #0]
 8000390:	f043 0340 	orr.w	r3, r3, #64	; 0x40
 8000394:	6013      	str	r3, [r2, #0]
 8000396:	4770      	bx	lr
 8000398:	4a0c      	ldr	r2, [pc, #48]	; (80003cc <Disable_NVIC+0x58>)
 800039a:	6813      	ldr	r3, [r2, #0]
 800039c:	f043 0380 	orr.w	r3, r3, #128	; 0x80
 80003a0:	e7f8      	b.n	8000394 <Disable_NVIC+0x20>
 80003a2:	4a0a      	ldr	r2, [pc, #40]	; (80003cc <Disable_NVIC+0x58>)
 80003a4:	6813      	ldr	r3, [r2, #0]
 80003a6:	f443 7380 	orr.w	r3, r3, #256	; 0x100
 80003aa:	e7f3      	b.n	8000394 <Disable_NVIC+0x20>
 80003ac:	4a07      	ldr	r2, [pc, #28]	; (80003cc <Disable_NVIC+0x58>)
 80003ae:	6813      	ldr	r3, [r2, #0]
 80003b0:	f443 7300 	orr.w	r3, r3, #512	; 0x200
 80003b4:	e7ee      	b.n	8000394 <Disable_NVIC+0x20>
 80003b6:	4a05      	ldr	r2, [pc, #20]	; (80003cc <Disable_NVIC+0x58>)
 80003b8:	6813      	ldr	r3, [r2, #0]
 80003ba:	f443 6380 	orr.w	r3, r3, #1024	; 0x400
 80003be:	e7e9      	b.n	8000394 <Disable_NVIC+0x20>
 80003c0:	4a02      	ldr	r2, [pc, #8]	; (80003cc <Disable_NVIC+0x58>)
 80003c2:	6813      	ldr	r3, [r2, #0]
 80003c4:	f443 0300 	orr.w	r3, r3, #8388608	; 0x800000
 80003c8:	e7e4      	b.n	8000394 <Disable_NVIC+0x20>
 80003ca:	bf00      	nop
 80003cc:	e000e180 	.word	0xe000e180

080003d0 <UPDATE_EXTI>:
 80003d0:	b570      	push	{r4, r5, r6, lr}
 80003d2:	4604      	mov	r4, r0
 80003d4:	8901      	ldrh	r1, [r0, #8]
 80003d6:	2201      	movs	r2, #1
 80003d8:	6840      	ldr	r0, [r0, #4]
 80003da:	f000 f924 	bl	8000626 <MCAL_GPIO_SET_PIN_INPUT>
 80003de:	8820      	ldrh	r0, [r4, #0]
 80003e0:	4e2b      	ldr	r6, [pc, #172]	; (8000490 <UPDATE_EXTI+0xc0>)
 80003e2:	f000 0303 	and.w	r3, r0, #3
 80003e6:	0099      	lsls	r1, r3, #2
 80003e8:	f400 727f 	and.w	r2, r0, #1020	; 0x3fc
 80003ec:	6863      	ldr	r3, [r4, #4]
 80003ee:	f102 4280 	add.w	r2, r2, #1073741824	; 0x40000000
 80003f2:	f502 3280 	add.w	r2, r2, #65536	; 0x10000
 80003f6:	42b3      	cmp	r3, r6
 80003f8:	6895      	ldr	r5, [r2, #8]
 80003fa:	d02e      	beq.n	800045a <UPDATE_EXTI+0x8a>
 80003fc:	f506 6680 	add.w	r6, r6, #1024	; 0x400
 8000400:	42b3      	cmp	r3, r6
 8000402:	d02c      	beq.n	800045e <UPDATE_EXTI+0x8e>
 8000404:	f506 6680 	add.w	r6, r6, #1024	; 0x400
 8000408:	42b3      	cmp	r3, r6
 800040a:	d02a      	beq.n	8000462 <UPDATE_EXTI+0x92>
 800040c:	f506 6680 	add.w	r6, r6, #1024	; 0x400
 8000410:	42b3      	cmp	r3, r6
 8000412:	bf0c      	ite	eq
 8000414:	2303      	moveq	r3, #3
 8000416:	2300      	movne	r3, #0
 8000418:	408b      	lsls	r3, r1
 800041a:	432b      	orrs	r3, r5
 800041c:	6093      	str	r3, [r2, #8]
 800041e:	2201      	movs	r2, #1
 8000420:	4082      	lsls	r2, r0
 8000422:	43d1      	mvns	r1, r2
 8000424:	4b1b      	ldr	r3, [pc, #108]	; (8000494 <UPDATE_EXTI+0xc4>)
 8000426:	689d      	ldr	r5, [r3, #8]
 8000428:	400d      	ands	r5, r1
 800042a:	609d      	str	r5, [r3, #8]
 800042c:	68dd      	ldr	r5, [r3, #12]
 800042e:	400d      	ands	r5, r1
 8000430:	60dd      	str	r5, [r3, #12]
 8000432:	7b25      	ldrb	r5, [r4, #12]
 8000434:	2d01      	cmp	r5, #1
 8000436:	d01d      	beq.n	8000474 <UPDATE_EXTI+0xa4>
 8000438:	d315      	bcc.n	8000466 <UPDATE_EXTI+0x96>
 800043a:	2d02      	cmp	r5, #2
 800043c:	d017      	beq.n	800046e <UPDATE_EXTI+0x9e>
 800043e:	6926      	ldr	r6, [r4, #16]
 8000440:	4d15      	ldr	r5, [pc, #84]	; (8000498 <UPDATE_EXTI+0xc8>)
 8000442:	f845 6020 	str.w	r6, [r5, r0, lsl #2]
 8000446:	7b64      	ldrb	r4, [r4, #13]
 8000448:	2c01      	cmp	r4, #1
 800044a:	d117      	bne.n	800047c <UPDATE_EXTI+0xac>
 800044c:	e8bd 4070 	ldmia.w	sp!, {r4, r5, r6, lr}
 8000450:	6819      	ldr	r1, [r3, #0]
 8000452:	430a      	orrs	r2, r1
 8000454:	601a      	str	r2, [r3, #0]
 8000456:	f7ff bf5b 	b.w	8000310 <Enable_NVIC>
 800045a:	2300      	movs	r3, #0
 800045c:	e7dc      	b.n	8000418 <UPDATE_EXTI+0x48>
 800045e:	2301      	movs	r3, #1
 8000460:	e7da      	b.n	8000418 <UPDATE_EXTI+0x48>
 8000462:	2302      	movs	r3, #2
 8000464:	e7d8      	b.n	8000418 <UPDATE_EXTI+0x48>
 8000466:	689d      	ldr	r5, [r3, #8]
 8000468:	4315      	orrs	r5, r2
 800046a:	609d      	str	r5, [r3, #8]
 800046c:	e7e7      	b.n	800043e <UPDATE_EXTI+0x6e>
 800046e:	689d      	ldr	r5, [r3, #8]
 8000470:	4315      	orrs	r5, r2
 8000472:	609d      	str	r5, [r3, #8]
 8000474:	68dd      	ldr	r5, [r3, #12]
 8000476:	4315      	orrs	r5, r2
 8000478:	60dd      	str	r5, [r3, #12]
 800047a:	e7e0      	b.n	800043e <UPDATE_EXTI+0x6e>
 800047c:	b934      	cbnz	r4, 800048c <UPDATE_EXTI+0xbc>
 800047e:	e8bd 4070 	ldmia.w	sp!, {r4, r5, r6, lr}
 8000482:	681a      	ldr	r2, [r3, #0]
 8000484:	4011      	ands	r1, r2
 8000486:	6019      	str	r1, [r3, #0]
 8000488:	f7ff bf74 	b.w	8000374 <Disable_NVIC>
 800048c:	bd70      	pop	{r4, r5, r6, pc}
 800048e:	bf00      	nop
 8000490:	40010800 	.word	0x40010800
 8000494:	40010400 	.word	0x40010400
 8000498:	20000024 	.word	0x20000024

0800049c <MCAL_EXTI_SET>:
 800049c:	b530      	push	{r4, r5, lr}
 800049e:	b08b      	sub	sp, #44	; 0x2c
 80004a0:	ac01      	add	r4, sp, #4
 80004a2:	e884 0007 	stmia.w	r4, {r0, r1, r2}
 80004a6:	ad05      	add	r5, sp, #20
 80004a8:	e894 0007 	ldmia.w	r4, {r0, r1, r2}
 80004ac:	f88d 3020 	strb.w	r3, [sp, #32]
 80004b0:	e885 0007 	stmia.w	r5, {r0, r1, r2}
 80004b4:	9b0f      	ldr	r3, [sp, #60]	; 0x3c
 80004b6:	f89d 2038 	ldrb.w	r2, [sp, #56]	; 0x38
 80004ba:	4628      	mov	r0, r5
 80004bc:	f88d 2021 	strb.w	r2, [sp, #33]	; 0x21
 80004c0:	9309      	str	r3, [sp, #36]	; 0x24
 80004c2:	f7ff ff85 	bl	80003d0 <UPDATE_EXTI>
 80004c6:	b00b      	add	sp, #44	; 0x2c
 80004c8:	bd30      	pop	{r4, r5, pc}
	...

080004cc <EXTI0_IRQHandler>:
 80004cc:	4a03      	ldr	r2, [pc, #12]	; (80004dc <EXTI0_IRQHandler+0x10>)
 80004ce:	6953      	ldr	r3, [r2, #20]
 80004d0:	f043 0301 	orr.w	r3, r3, #1
 80004d4:	6153      	str	r3, [r2, #20]
 80004d6:	4b02      	ldr	r3, [pc, #8]	; (80004e0 <EXTI0_IRQHandler+0x14>)
 80004d8:	681b      	ldr	r3, [r3, #0]
 80004da:	4718      	bx	r3
 80004dc:	40010400 	.word	0x40010400
 80004e0:	20000024 	.word	0x20000024

080004e4 <EXTI1_IRQHandler>:
 80004e4:	4a03      	ldr	r2, [pc, #12]	; (80004f4 <EXTI1_IRQHandler+0x10>)
 80004e6:	6953      	ldr	r3, [r2, #20]
 80004e8:	f043 0302 	orr.w	r3, r3, #2
 80004ec:	6153      	str	r3, [r2, #20]
 80004ee:	4b02      	ldr	r3, [pc, #8]	; (80004f8 <EXTI1_IRQHandler+0x14>)
 80004f0:	685b      	ldr	r3, [r3, #4]
 80004f2:	4718      	bx	r3
 80004f4:	40010400 	.word	0x40010400
 80004f8:	20000024 	.word	0x20000024

080004fc <EXTI2_IRQHandler>:
 80004fc:	4a03      	ldr	r2, [pc, #12]	; (800050c <EXTI2_IRQHandler+0x10>)
 80004fe:	6953      	ldr	r3, [r2, #20]
 8000500:	f043 0304 	orr.w	r3, r3, #4
 8000504:	6153      	str	r3, [r2, #20]
 8000506:	4b02      	ldr	r3, [pc, #8]	; (8000510 <EXTI2_IRQHandler+0x14>)
 8000508:	689b      	ldr	r3, [r3, #8]
 800050a:	4718      	bx	r3
 800050c:	40010400 	.word	0x40010400
 8000510:	20000024 	.word	0x20000024

08000514 <EXTI3_IRQHandler>:
 8000514:	4a03      	ldr	r2, [pc, #12]	; (8000524 <EXTI3_IRQHandler+0x10>)
 8000516:	6953      	ldr	r3, [r2, #20]
 8000518:	f043 0308 	orr.w	r3, r3, #8
 800051c:	6153      	str	r3, [r2, #20]
 800051e:	4b02      	ldr	r3, [pc, #8]	; (8000528 <EXTI3_IRQHandler+0x14>)
 8000520:	68db      	ldr	r3, [r3, #12]
 8000522:	4718      	bx	r3
 8000524:	40010400 	.word	0x40010400
 8000528:	20000024 	.word	0x20000024

0800052c <EXTI4_IRQHandler>:
 800052c:	4a03      	ldr	r2, [pc, #12]	; (800053c <EXTI4_IRQHandler+0x10>)
 800052e:	6953      	ldr	r3, [r2, #20]
 8000530:	f043 0310 	orr.w	r3, r3, #16
 8000534:	6153      	str	r3, [r2, #20]
 8000536:	4b02      	ldr	r3, [pc, #8]	; (8000540 <EXTI4_IRQHandler+0x14>)
 8000538:	691b      	ldr	r3, [r3, #16]
 800053a:	4718      	bx	r3
 800053c:	40010400 	.word	0x40010400
 8000540:	20000024 	.word	0x20000024

08000544 <GET_CRLH_POSITION>:
 8000544:	2880      	cmp	r0, #128	; 0x80
 8000546:	d031      	beq.n	80005ac <GET_CRLH_POSITION+0x68>
 8000548:	d810      	bhi.n	800056c <GET_CRLH_POSITION+0x28>
 800054a:	2808      	cmp	r0, #8
 800054c:	d02a      	beq.n	80005a4 <GET_CRLH_POSITION+0x60>
 800054e:	d805      	bhi.n	800055c <GET_CRLH_POSITION+0x18>
 8000550:	2802      	cmp	r0, #2
 8000552:	d018      	beq.n	8000586 <GET_CRLH_POSITION+0x42>
 8000554:	2804      	cmp	r0, #4
 8000556:	d023      	beq.n	80005a0 <GET_CRLH_POSITION+0x5c>
 8000558:	2000      	movs	r0, #0
 800055a:	4770      	bx	lr
 800055c:	2820      	cmp	r0, #32
 800055e:	d01d      	beq.n	800059c <GET_CRLH_POSITION+0x58>
 8000560:	2840      	cmp	r0, #64	; 0x40
 8000562:	d021      	beq.n	80005a8 <GET_CRLH_POSITION+0x64>
 8000564:	2810      	cmp	r0, #16
 8000566:	d1f7      	bne.n	8000558 <GET_CRLH_POSITION+0x14>
 8000568:	2010      	movs	r0, #16
 800056a:	4770      	bx	lr
 800056c:	f5b0 5f80 	cmp.w	r0, #4096	; 0x1000
 8000570:	d0fa      	beq.n	8000568 <GET_CRLH_POSITION+0x24>
 8000572:	d80a      	bhi.n	800058a <GET_CRLH_POSITION+0x46>
 8000574:	f5b0 6f80 	cmp.w	r0, #1024	; 0x400
 8000578:	d012      	beq.n	80005a0 <GET_CRLH_POSITION+0x5c>
 800057a:	f5b0 6f00 	cmp.w	r0, #2048	; 0x800
 800057e:	d011      	beq.n	80005a4 <GET_CRLH_POSITION+0x60>
 8000580:	f5b0 7f00 	cmp.w	r0, #512	; 0x200
 8000584:	d1e8      	bne.n	8000558 <GET_CRLH_POSITION+0x14>
 8000586:	2004      	movs	r0, #4
 8000588:	4770      	bx	lr
 800058a:	f5b0 4f80 	cmp.w	r0, #16384	; 0x4000
 800058e:	d00b      	beq.n	80005a8 <GET_CRLH_POSITION+0x64>
 8000590:	f5b0 4f00 	cmp.w	r0, #32768	; 0x8000
 8000594:	d00a      	beq.n	80005ac <GET_CRLH_POSITION+0x68>
 8000596:	f5b0 5f00 	cmp.w	r0, #8192	; 0x2000
 800059a:	d1dd      	bne.n	8000558 <GET_CRLH_POSITION+0x14>
 800059c:	2014      	movs	r0, #20
 800059e:	4770      	bx	lr
 80005a0:	2008      	movs	r0, #8
 80005a2:	4770      	bx	lr
 80005a4:	200c      	movs	r0, #12
 80005a6:	4770      	bx	lr
 80005a8:	2018      	movs	r0, #24
 80005aa:	4770      	bx	lr
 80005ac:	201c      	movs	r0, #28
 80005ae:	4770      	bx	lr

080005b0 <MCAL_GPIO_Init>:
 80005b0:	b5f8      	push	{r3, r4, r5, r6, r7, lr}
 80005b2:	880d      	ldrh	r5, [r1, #0]
 80005b4:	4602      	mov	r2, r0
 80005b6:	2d80      	cmp	r5, #128	; 0x80
 80005b8:	bf8b      	itete	hi
 80005ba:	6846      	ldrhi	r6, [r0, #4]
 80005bc:	6806      	ldrls	r6, [r0, #0]
 80005be:	1d04      	addhi	r4, r0, #4
 80005c0:	4604      	movls	r4, r0
 80005c2:	4628      	mov	r0, r5
 80005c4:	f7ff ffbe 	bl	8000544 <GET_CRLH_POSITION>
 80005c8:	230f      	movs	r3, #15
 80005ca:	4083      	lsls	r3, r0
 80005cc:	ea26 0603 	bic.w	r6, r6, r3
 80005d0:	6026      	str	r6, [r4, #0]
 80005d2:	788b      	ldrb	r3, [r1, #2]
 80005d4:	1f1e      	subs	r6, r3, #4
 80005d6:	b2f7      	uxtb	r7, r6
 80005d8:	2f02      	cmp	r7, #2
 80005da:	d809      	bhi.n	80005f0 <MCAL_GPIO_Init+0x40>
 80005dc:	78cb      	ldrb	r3, [r1, #3]
 80005de:	ea43 0386 	orr.w	r3, r3, r6, lsl #2
 80005e2:	f003 030f 	and.w	r3, r3, #15
 80005e6:	6822      	ldr	r2, [r4, #0]
 80005e8:	4083      	lsls	r3, r0
 80005ea:	4313      	orrs	r3, r2
 80005ec:	6023      	str	r3, [r4, #0]
 80005ee:	bdf8      	pop	{r3, r4, r5, r6, r7, pc}
 80005f0:	2b01      	cmp	r3, #1
 80005f2:	d001      	beq.n	80005f8 <MCAL_GPIO_Init+0x48>
 80005f4:	2b08      	cmp	r3, #8
 80005f6:	d103      	bne.n	8000600 <MCAL_GPIO_Init+0x50>
 80005f8:	009b      	lsls	r3, r3, #2
 80005fa:	f003 030c 	and.w	r3, r3, #12
 80005fe:	e7f2      	b.n	80005e6 <MCAL_GPIO_Init+0x36>
 8000600:	2b02      	cmp	r3, #2
 8000602:	bf0b      	itete	eq
 8000604:	68d3      	ldreq	r3, [r2, #12]
 8000606:	68d1      	ldrne	r1, [r2, #12]
 8000608:	431d      	orreq	r5, r3
 800060a:	ea21 0505 	bicne.w	r5, r1, r5
 800060e:	60d5      	str	r5, [r2, #12]
 8000610:	2308      	movs	r3, #8
 8000612:	e7e8      	b.n	80005e6 <MCAL_GPIO_Init+0x36>

08000614 <MCAL_GPIO_WRITE_PORT>:
 8000614:	60c1      	str	r1, [r0, #12]
 8000616:	4770      	bx	lr

08000618 <MCAL_GPIO_WRITE_PIN>:
 8000618:	b11a      	cbz	r2, 8000622 <MCAL_GPIO_WRITE_PIN+0xa>
 800061a:	68c3      	ldr	r3, [r0, #12]
 800061c:	4319      	orrs	r1, r3
 800061e:	60c1      	str	r1, [r0, #12]
 8000620:	4770      	bx	lr
 8000622:	6141      	str	r1, [r0, #20]
 8000624:	4770      	bx	lr

08000626 <MCAL_GPIO_SET_PIN_INPUT>:
 8000626:	b507      	push	{r0, r1, r2, lr}
 8000628:	f8ad 1004 	strh.w	r1, [sp, #4]
 800062c:	a901      	add	r1, sp, #4
 800062e:	f88d 2006 	strb.w	r2, [sp, #6]
 8000632:	f7ff ffbd 	bl	80005b0 <MCAL_GPIO_Init>
 8000636:	b003      	add	sp, #12
 8000638:	f85d fb04 	ldr.w	pc, [sp], #4

0800063c <EXTI1_Interrupt>:
 800063c:	2201      	movs	r2, #1
 800063e:	4b01      	ldr	r3, [pc, #4]	; (8000644 <EXTI1_Interrupt+0x8>)
 8000640:	701a      	strb	r2, [r3, #0]
 8000642:	4770      	bx	lr
 8000644:	2000001c 	.word	0x2000001c

08000648 <clock_init>:
 8000648:	4b06      	ldr	r3, [pc, #24]	; (8000664 <clock_init+0x1c>)
 800064a:	699a      	ldr	r2, [r3, #24]
 800064c:	f042 0204 	orr.w	r2, r2, #4
 8000650:	619a      	str	r2, [r3, #24]
 8000652:	699a      	ldr	r2, [r3, #24]
 8000654:	f042 0208 	orr.w	r2, r2, #8
 8000658:	619a      	str	r2, [r3, #24]
 800065a:	699a      	ldr	r2, [r3, #24]
 800065c:	f042 0201 	orr.w	r2, r2, #1
 8000660:	619a      	str	r2, [r3, #24]
 8000662:	4770      	bx	lr
 8000664:	40021000 	.word	0x40021000

08000668 <main>:
 8000668:	b570      	push	{r4, r5, r6, lr}
 800066a:	2501      	movs	r5, #1
 800066c:	b086      	sub	sp, #24
 800066e:	f7ff ffeb 	bl	8000648 <clock_init>
 8000672:	f7ff fe03 	bl	800027c <LCD_INIT>
 8000676:	4b10      	ldr	r3, [pc, #64]	; (80006b8 <main+0x50>)
 8000678:	ac03      	add	r4, sp, #12
 800067a:	e893 0007 	ldmia.w	r3, {r0, r1, r2}
 800067e:	4b0f      	ldr	r3, [pc, #60]	; (80006bc <main+0x54>)
 8000680:	e884 0007 	stmia.w	r4, {r0, r1, r2}
 8000684:	9301      	str	r3, [sp, #4]
 8000686:	9500      	str	r5, [sp, #0]
 8000688:	2300      	movs	r3, #0
 800068a:	4c0d      	ldr	r4, [pc, #52]	; (80006c0 <main+0x58>)
 800068c:	f7ff ff06 	bl	800049c <MCAL_EXTI_SET>
 8000690:	462a      	mov	r2, r5
 8000692:	2180      	movs	r1, #128	; 0x80
 8000694:	480b      	ldr	r0, [pc, #44]	; (80006c4 <main+0x5c>)
 8000696:	f7ff fe1e 	bl	80002d6 <LCD_WRITE_STRING_POS>
 800069a:	4625      	mov	r5, r4
 800069c:	4e0a      	ldr	r6, [pc, #40]	; (80006c8 <main+0x60>)
 800069e:	7823      	ldrb	r3, [r4, #0]
 80006a0:	b903      	cbnz	r3, 80006a4 <main+0x3c>
 80006a2:	e7fe      	b.n	80006a2 <main+0x3a>
 80006a4:	f7ff fe14 	bl	80002d0 <LCD_clear_screen>
 80006a8:	2201      	movs	r2, #1
 80006aa:	2180      	movs	r1, #128	; 0x80
 80006ac:	4630      	mov	r0, r6
 80006ae:	f7ff fe12 	bl	80002d6 <LCD_WRITE_STRING_POS>
 80006b2:	2300      	movs	r3, #0
 80006b4:	702b      	strb	r3, [r5, #0]
 80006b6:	e7f2      	b.n	800069e <main+0x36>
 80006b8:	08000780 	.word	0x08000780
 80006bc:	0800063d 	.word	0x0800063d
 80006c0:	2000001c 	.word	0x2000001c
 80006c4:	0800078c 	.word	0x0800078c
 80006c8:	08000794 	.word	0x08000794

080006cc <Reset_Handler>:
 80006cc:	480d      	ldr	r0, [pc, #52]	; (8000704 <LoopForever+0x2>)
 80006ce:	4685      	mov	sp, r0
 80006d0:	f3af 8000 	nop.w
 80006d4:	480c      	ldr	r0, [pc, #48]	; (8000708 <LoopForever+0x6>)
 80006d6:	490d      	ldr	r1, [pc, #52]	; (800070c <LoopForever+0xa>)
 80006d8:	4a0d      	ldr	r2, [pc, #52]	; (8000710 <LoopForever+0xe>)
 80006da:	2300      	movs	r3, #0
 80006dc:	e002      	b.n	80006e4 <LoopCopyDataInit>

080006de <CopyDataInit>:
 80006de:	58d4      	ldr	r4, [r2, r3]
 80006e0:	50c4      	str	r4, [r0, r3]
 80006e2:	3304      	adds	r3, #4

080006e4 <LoopCopyDataInit>:
 80006e4:	18c4      	adds	r4, r0, r3
 80006e6:	428c      	cmp	r4, r1
 80006e8:	d3f9      	bcc.n	80006de <CopyDataInit>
 80006ea:	4a0a      	ldr	r2, [pc, #40]	; (8000714 <LoopForever+0x12>)
 80006ec:	4c0a      	ldr	r4, [pc, #40]	; (8000718 <LoopForever+0x16>)
 80006ee:	2300      	movs	r3, #0
 80006f0:	e001      	b.n	80006f6 <LoopFillZerobss>

080006f2 <FillZerobss>:
 80006f2:	6013      	str	r3, [r2, #0]
 80006f4:	3204      	adds	r2, #4

080006f6 <LoopFillZerobss>:
 80006f6:	42a2      	cmp	r2, r4
 80006f8:	d3fb      	bcc.n	80006f2 <FillZerobss>
 80006fa:	f000 f811 	bl	8000720 <__libc_init_array>
 80006fe:	f7ff ffb3 	bl	8000668 <main>

08000702 <LoopForever>:
 8000702:	e7fe      	b.n	8000702 <LoopForever>
 8000704:	20002800 	.word	0x20002800
 8000708:	20000000 	.word	0x20000000
 800070c:	20000000 	.word	0x20000000
 8000710:	080007a8 	.word	0x080007a8
 8000714:	20000000 	.word	0x20000000
 8000718:	20000060 	.word	0x20000060

0800071c <ADC1_2_IRQHandler>:
 800071c:	e7fe      	b.n	800071c <ADC1_2_IRQHandler>
	...

08000720 <__libc_init_array>:
 8000720:	b570      	push	{r4, r5, r6, lr}
 8000722:	2500      	movs	r5, #0
 8000724:	4e0c      	ldr	r6, [pc, #48]	; (8000758 <__libc_init_array+0x38>)
 8000726:	4c0d      	ldr	r4, [pc, #52]	; (800075c <__libc_init_array+0x3c>)
 8000728:	1ba4      	subs	r4, r4, r6
 800072a:	10a4      	asrs	r4, r4, #2
 800072c:	42a5      	cmp	r5, r4
 800072e:	d109      	bne.n	8000744 <__libc_init_array+0x24>
 8000730:	f000 f81a 	bl	8000768 <_init>
 8000734:	2500      	movs	r5, #0
 8000736:	4e0a      	ldr	r6, [pc, #40]	; (8000760 <__libc_init_array+0x40>)
 8000738:	4c0a      	ldr	r4, [pc, #40]	; (8000764 <__libc_init_array+0x44>)
 800073a:	1ba4      	subs	r4, r4, r6
 800073c:	10a4      	asrs	r4, r4, #2
 800073e:	42a5      	cmp	r5, r4
 8000740:	d105      	bne.n	800074e <__libc_init_array+0x2e>
 8000742:	bd70      	pop	{r4, r5, r6, pc}
 8000744:	f856 3025 	ldr.w	r3, [r6, r5, lsl #2]
 8000748:	4798      	blx	r3
 800074a:	3501      	adds	r5, #1
 800074c:	e7ee      	b.n	800072c <__libc_init_array+0xc>
 800074e:	f856 3025 	ldr.w	r3, [r6, r5, lsl #2]
 8000752:	4798      	blx	r3
 8000754:	3501      	adds	r5, #1
 8000756:	e7f2      	b.n	800073e <__libc_init_array+0x1e>
 8000758:	080007a0 	.word	0x080007a0
 800075c:	080007a0 	.word	0x080007a0
 8000760:	080007a0 	.word	0x080007a0
 8000764:	080007a4 	.word	0x080007a4

08000768 <_init>:
 8000768:	b5f8      	push	{r3, r4, r5, r6, r7, lr}
 800076a:	bf00      	nop
 800076c:	bcf8      	pop	{r3, r4, r5, r6, r7}
 800076e:	bc08      	pop	{r3}
 8000770:	469e      	mov	lr, r3
 8000772:	4770      	bx	lr

08000774 <_fini>:
 8000774:	b5f8      	push	{r3, r4, r5, r6, r7, lr}
 8000776:	bf00      	nop
 8000778:	bcf8      	pop	{r3, r4, r5, r6, r7}
 800077a:	bc08      	pop	{r3}
 800077c:	469e      	mov	lr, r3
 800077e:	4770      	bx	lr
